target datalayout = "e-m:e-p270:32:32-p271:32:32-p272:64:64-i64:64-i128:128-f80:128-n8:16:32:64-S128"
target triple = "x86_64-pc-linux-gnu"

%struct._object = type { %union.anon, ptr }
%union.anon = type { i64 }
%struct._ffi_type = type { i64, i16, i16, ptr }
%struct.ctypes_state = type { ptr, ptr, ptr, ptr, ptr, ptr, ptr, ptr, ptr, ptr, ptr, ptr, ptr, ptr, ptr, ptr, ptr, ptr, ptr, ptr, ptr, ptr, ptr, ptr, ptr }
%struct.StgInfo = type { i32, i64, i64, i64, %struct._ffi_type, ptr, ptr, ptr, ptr, ptr, ptr, ptr, ptr, ptr, i32, ptr, i32, ptr }
%struct.tagCDataObject = type { %struct._object, ptr, i32, ptr, i64, i64, i64, ptr, %union.value }
%union.value = type { x86_fp80 }
%struct.PyModuleObject = type { %struct._object, ptr, ptr, ptr, ptr, ptr }

@PyExc_TypeError = external global ptr, align 8
@.str.4 = private unnamed_addr constant [21 x i8] c"not a ctype instance\00", align 1
@PyExc_IndexError = external global ptr, align 8
@.str.187 = private unnamed_addr constant [14 x i8] c"invalid index\00", align 1
@.str.188 = private unnamed_addr constant [37 x i8] c"Array does not support item deletion\00", align 1

; Function Attrs: inlinehint nounwind uwtable
define internal i32 @Py_IS_TYPE(ptr noundef %0, ptr noundef %1) #2 {
  %3 = alloca ptr, align 8
  %4 = alloca ptr, align 8
  store ptr %0, ptr %3, align 8, !tbaa !7
  store ptr %1, ptr %4, align 8, !tbaa !50
  %5 = load ptr, ptr %3, align 8, !tbaa !7
  %6 = call ptr @_Py_TYPE(ptr noundef %5)
  %7 = load ptr, ptr %4, align 8, !tbaa !50
  %8 = icmp eq ptr %6, %7
  %9 = zext i1 %8 to i32
  ret i32 %9
}

; Function Attrs: inlinehint nounwind uwtable
define internal ptr @_PyModule_GetState(ptr noundef %0) #2 {
  %2 = alloca ptr, align 8
  store ptr %0, ptr %2, align 8, !tbaa !7
  %3 = load ptr, ptr %2, align 8, !tbaa !7
  %4 = getelementptr inbounds nuw %struct.PyModuleObject, ptr %3, i32 0, i32 3
  %5 = load ptr, ptr %4, align 8, !tbaa !112
  ret ptr %5
}

; Function Attrs: inlinehint nounwind uwtable
define internal i32 @PyObject_TypeCheck(ptr noundef %0, ptr noundef %1) #2 {
  %3 = alloca ptr, align 8
  %4 = alloca ptr, align 8
  store ptr %0, ptr %3, align 8, !tbaa !7
  store ptr %1, ptr %4, align 8, !tbaa !50
  %5 = load ptr, ptr %3, align 8, !tbaa !7
  %6 = load ptr, ptr %4, align 8, !tbaa !50
  %7 = call i32 @Py_IS_TYPE(ptr noundef %5, ptr noundef %6)
  %8 = icmp ne i32 %7, 0
  br i1 %8, label %15, label %9

9:                                                ; preds = %2
  %10 = load ptr, ptr %3, align 8, !tbaa !7
  %11 = call ptr @_Py_TYPE(ptr noundef %10)
  %12 = load ptr, ptr %4, align 8, !tbaa !50
  %13 = call i32 @PyType_IsSubtype(ptr noundef %11, ptr noundef %12)
  %14 = icmp ne i32 %13, 0
  br label %15

15:                                               ; preds = %9, %2
  %16 = phi i1 [ true, %2 ], [ %14, %9 ]
  %17 = zext i1 %16 to i32
  ret i32 %17
}

; Function Attrs: inlinehint nounwind uwtable
define internal i32 @_stginfo_from_type(ptr noundef %0, ptr noundef %1, ptr noundef %2) #2 {
  %4 = alloca i32, align 4
  %5 = alloca ptr, align 8
  %6 = alloca ptr, align 8
  %7 = alloca ptr, align 8
  %8 = alloca ptr, align 8
  %9 = alloca i32, align 4
  store ptr %0, ptr %5, align 8, !tbaa !3
  store ptr %1, ptr %6, align 8, !tbaa !50
  store ptr %2, ptr %7, align 8, !tbaa !3
  %10 = load ptr, ptr %7, align 8, !tbaa !3
  store ptr null, ptr %10, align 8, !tbaa !3
  %11 = load ptr, ptr %6, align 8, !tbaa !50
  %12 = load ptr, ptr %5, align 8, !tbaa !3
  %13 = getelementptr inbounds nuw %struct.ctypes_state, ptr %12, i32 0, i32 5
  %14 = load ptr, ptr %13, align 8, !tbaa !80
  %15 = call i32 @PyObject_IsInstance(ptr noundef %11, ptr noundef %14)
  %16 = icmp ne i32 %15, 0
  br i1 %16, label %18, label %17

17:                                               ; preds = %3
  store i32 0, ptr %4, align 4
  br label %33

18:                                               ; preds = %3
  call void @llvm.lifetime.start.p0(i64 8, ptr %8) #9
  %19 = load ptr, ptr %6, align 8, !tbaa !50
  %20 = load ptr, ptr %5, align 8, !tbaa !3
  %21 = getelementptr inbounds nuw %struct.ctypes_state, ptr %20, i32 0, i32 5
  %22 = load ptr, ptr %21, align 8, !tbaa !80
  %23 = call ptr @PyObject_GetTypeData(ptr noundef %19, ptr noundef %22)
  store ptr %23, ptr %8, align 8, !tbaa !3
  %24 = load ptr, ptr %8, align 8, !tbaa !3
  %25 = getelementptr inbounds nuw %struct.StgInfo, ptr %24, i32 0, i32 0
  %26 = load i32, ptr %25, align 8, !tbaa !115
  %27 = icmp ne i32 %26, 0
  br i1 %27, label %29, label %28

28:                                               ; preds = %18
  store i32 0, ptr %4, align 4
  store i32 1, ptr %9, align 4
  br label %32

29:                                               ; preds = %18
  %30 = load ptr, ptr %8, align 8, !tbaa !3
  %31 = load ptr, ptr %7, align 8, !tbaa !3
  store ptr %30, ptr %31, align 8, !tbaa !3
  store i32 1, ptr %4, align 4
  store i32 1, ptr %9, align 4
  br label %32

32:                                               ; preds = %29, %28
  call void @llvm.lifetime.end.p0(i64 8, ptr %8) #9
  br label %33

33:                                               ; preds = %32, %17
  %34 = load i32, ptr %4, align 4
  ret i32 %34
}

; Function Attrs: inlinehint nounwind uwtable
define internal ptr @get_module_state(ptr noundef %0) #2 {
  %2 = alloca ptr, align 8
  %3 = alloca ptr, align 8
  store ptr %0, ptr %2, align 8, !tbaa !7
  call void @llvm.lifetime.start.p0(i64 8, ptr %3) #9
  %4 = load ptr, ptr %2, align 8, !tbaa !7
  %5 = call ptr @_PyModule_GetState(ptr noundef %4)
  store ptr %5, ptr %3, align 8, !tbaa !3
  %6 = load ptr, ptr %3, align 8, !tbaa !3
  call void @llvm.lifetime.end.p0(i64 8, ptr %3) #9
  ret ptr %6
}

; Function Attrs: nounwind uwtable
define hidden i32 @PyCData_set(ptr noundef %0, ptr noundef %1, ptr noundef %2, ptr noundef %3, ptr noundef %4, i64 noundef %5, i64 noundef %6, ptr noundef %7) #0 {
  %9 = alloca i32, align 4
  %10 = alloca ptr, align 8
  %11 = alloca ptr, align 8
  %12 = alloca ptr, align 8
  %13 = alloca ptr, align 8
  %14 = alloca ptr, align 8
  %15 = alloca i64, align 8
  %16 = alloca i64, align 8
  %17 = alloca ptr, align 8
  %18 = alloca ptr, align 8
  %19 = alloca ptr, align 8
  %20 = alloca i32, align 4
  store ptr %0, ptr %10, align 8, !tbaa !3
  store ptr %1, ptr %11, align 8, !tbaa !7
  store ptr %2, ptr %12, align 8, !tbaa !7
  store ptr %3, ptr %13, align 8, !tbaa !3
  store ptr %4, ptr %14, align 8, !tbaa !7
  store i64 %5, ptr %15, align 8, !tbaa !23
  store i64 %6, ptr %16, align 8, !tbaa !23
  store ptr %7, ptr %17, align 8, !tbaa !25
  call void @llvm.lifetime.start.p0(i64 8, ptr %18) #9
  %21 = load ptr, ptr %11, align 8, !tbaa !7
  store ptr %21, ptr %18, align 8, !tbaa !39
  call void @llvm.lifetime.start.p0(i64 8, ptr %19) #9
  %22 = load ptr, ptr %11, align 8, !tbaa !7
  %23 = load ptr, ptr %10, align 8, !tbaa !3
  %24 = getelementptr inbounds nuw %struct.ctypes_state, ptr %23, i32 0, i32 12
  %25 = load ptr, ptr %24, align 8, !tbaa !55
  %26 = call i32 @PyObject_TypeCheck(ptr noundef %22, ptr noundef %25)
  %27 = icmp ne i32 %26, 0
  br i1 %27, label %30, label %28

28:                                               ; preds = %8
  %29 = load ptr, ptr @PyExc_TypeError, align 8, !tbaa !7
  call void @PyErr_SetString(ptr noundef %29, ptr noundef @.str.4)
  store i32 -1, ptr %9, align 4
  store i32 1, ptr %20, align 4
  br label %47

30:                                               ; preds = %8
  %31 = load ptr, ptr %10, align 8, !tbaa !3
  %32 = load ptr, ptr %18, align 8, !tbaa !39
  %33 = load ptr, ptr %12, align 8, !tbaa !7
  %34 = load ptr, ptr %13, align 8, !tbaa !3
  %35 = load ptr, ptr %14, align 8, !tbaa !7
  %36 = load i64, ptr %16, align 8, !tbaa !23
  %37 = load ptr, ptr %17, align 8, !tbaa !25
  %38 = call ptr @_PyCData_set(ptr noundef %31, ptr noundef %32, ptr noundef %33, ptr noundef %34, ptr noundef %35, i64 noundef %36, ptr noundef %37)
  store ptr %38, ptr %19, align 8, !tbaa !7
  %39 = load ptr, ptr %19, align 8, !tbaa !7
  %40 = icmp eq ptr %39, null
  br i1 %40, label %41, label %42

41:                                               ; preds = %30
  store i32 -1, ptr %9, align 4
  store i32 1, ptr %20, align 4
  br label %47

42:                                               ; preds = %30
  %43 = load ptr, ptr %18, align 8, !tbaa !39
  %44 = load i64, ptr %15, align 8, !tbaa !23
  %45 = load ptr, ptr %19, align 8, !tbaa !7
  %46 = call i32 @KeepRef(ptr noundef %43, i64 noundef %44, ptr noundef %45)
  store i32 %46, ptr %9, align 4
  store i32 1, ptr %20, align 4
  br label %47

47:                                               ; preds = %42, %41, %28
  call void @llvm.lifetime.end.p0(i64 8, ptr %19) #9
  call void @llvm.lifetime.end.p0(i64 8, ptr %18) #9
  %48 = load i32, ptr %9, align 4
  ret i32 %48
}

; Function Attrs: inlinehint nounwind uwtable
define internal i32 @PyStgInfo_FromObject(ptr noundef %0, ptr noundef %1, ptr noundef %2) #2 {
  %4 = alloca ptr, align 8
  %5 = alloca ptr, align 8
  %6 = alloca ptr, align 8
  store ptr %0, ptr %4, align 8, !tbaa !3
  store ptr %1, ptr %5, align 8, !tbaa !7
  store ptr %2, ptr %6, align 8, !tbaa !3
  %7 = load ptr, ptr %4, align 8, !tbaa !3
  %8 = load ptr, ptr %5, align 8, !tbaa !7
  %9 = call ptr @_Py_TYPE(ptr noundef %8)
  %10 = load ptr, ptr %6, align 8, !tbaa !3
  %11 = call i32 @_stginfo_from_type(ptr noundef %7, ptr noundef %9, ptr noundef %10)
  ret i32 %11
}

; Function Attrs: inlinehint nounwind uwtable
define internal ptr @get_module_state_by_def(ptr noundef %0) #2 {
  %2 = alloca ptr, align 8
  %3 = alloca ptr, align 8
  store ptr %0, ptr %2, align 8, !tbaa !50
  call void @llvm.lifetime.start.p0(i64 8, ptr %3) #9
  %4 = load ptr, ptr %2, align 8, !tbaa !50
  %5 = call ptr @PyType_GetModuleByDef(ptr noundef %4, ptr noundef @_ctypesmodule)
  store ptr %5, ptr %3, align 8, !tbaa !7
  %6 = load ptr, ptr %3, align 8, !tbaa !7
  %7 = call ptr @get_module_state(ptr noundef %6)
  call void @llvm.lifetime.end.p0(i64 8, ptr %3) #9
  ret ptr %7
}

; Function Attrs: inlinehint nounwind uwtable
define internal ptr @_Py_TYPE(ptr noundef %0) #2 {
  %2 = alloca ptr, align 8
  store ptr %0, ptr %2, align 8, !tbaa !7
  %3 = load ptr, ptr %2, align 8, !tbaa !7
  %4 = getelementptr inbounds nuw %struct._object, ptr %3, i32 0, i32 1
  %5 = load ptr, ptr %4, align 8, !tbaa !84
  ret ptr %5
}

; Function Attrs: nounwind uwtable
define internal i32 @Array_ass_item(ptr noundef %0, i64 noundef %1, ptr noundef %2) #0 {
  %4 = alloca i32, align 4
  %5 = alloca ptr, align 8
  %6 = alloca i64, align 8
  %7 = alloca ptr, align 8
  %8 = alloca ptr, align 8
  %9 = alloca i64, align 8
  %10 = alloca i64, align 8
  %11 = alloca ptr, align 8
  %12 = alloca i32, align 4
  %13 = alloca ptr, align 8
  %14 = alloca ptr, align 8
  store ptr %0, ptr %5, align 8, !tbaa !7
  store i64 %1, ptr %6, align 8, !tbaa !23
  store ptr %2, ptr %7, align 8, !tbaa !7
  call void @llvm.lifetime.start.p0(i64 8, ptr %8) #9
  %15 = load ptr, ptr %5, align 8, !tbaa !7
  store ptr %15, ptr %8, align 8, !tbaa !39
  call void @llvm.lifetime.start.p0(i64 8, ptr %9) #9
  call void @llvm.lifetime.start.p0(i64 8, ptr %10) #9
  call void @llvm.lifetime.start.p0(i64 8, ptr %11) #9
  %16 = load ptr, ptr %7, align 8, !tbaa !7
  %17 = icmp eq ptr %16, null
  br i1 %17, label %18, label %20

18:                                               ; preds = %3
  %19 = load ptr, ptr @PyExc_TypeError, align 8, !tbaa !7
  call void @PyErr_SetString(ptr noundef %19, ptr noundef @.str.188)
  store i32 -1, ptr %4, align 4
  store i32 1, ptr %12, align 4
  br label %71

20:                                               ; preds = %3
  call void @llvm.lifetime.start.p0(i64 8, ptr %13) #9
  %21 = load ptr, ptr %8, align 8, !tbaa !39
  %22 = call ptr @_Py_TYPE(ptr noundef %21)
  %23 = call ptr @_Py_TYPE(ptr noundef %22)
  %24 = call ptr @get_module_state_by_def(ptr noundef %23)
  store ptr %24, ptr %13, align 8, !tbaa !3
  call void @llvm.lifetime.start.p0(i64 8, ptr %14) #9
  %25 = load ptr, ptr %13, align 8, !tbaa !3
  %26 = load ptr, ptr %5, align 8, !tbaa !7
  %27 = call i32 @PyStgInfo_FromObject(ptr noundef %25, ptr noundef %26, ptr noundef %14)
  %28 = icmp slt i32 %27, 0
  br i1 %28, label %29, label %30

29:                                               ; preds = %20
  store i32 -1, ptr %4, align 4
  store i32 1, ptr %12, align 4
  br label %70

30:                                               ; preds = %20
  %31 = load i64, ptr %6, align 8, !tbaa !23
  %32 = icmp slt i64 %31, 0
  br i1 %32, label %39, label %33

33:                                               ; preds = %30
  %34 = load i64, ptr %6, align 8, !tbaa !23
  %35 = load ptr, ptr %14, align 8, !tbaa !3
  %36 = getelementptr inbounds nuw %struct.StgInfo, ptr %35, i32 0, i32 3
  %37 = load i64, ptr %36, align 8, !tbaa !41
  %38 = icmp sge i64 %34, %37
  br i1 %38, label %39, label %41

39:                                               ; preds = %33, %30
  %40 = load ptr, ptr @PyExc_IndexError, align 8, !tbaa !7
  call void @PyErr_SetString(ptr noundef %40, ptr noundef @.str.187)
  store i32 -1, ptr %4, align 4
  store i32 1, ptr %12, align 4
  br label %70

41:                                               ; preds = %33
  %42 = load ptr, ptr %14, align 8, !tbaa !3
  %43 = getelementptr inbounds nuw %struct.StgInfo, ptr %42, i32 0, i32 1
  %44 = load i64, ptr %43, align 8, !tbaa !44
  %45 = load ptr, ptr %14, align 8, !tbaa !3
  %46 = getelementptr inbounds nuw %struct.StgInfo, ptr %45, i32 0, i32 3
  %47 = load i64, ptr %46, align 8, !tbaa !41
  %48 = sdiv i64 %44, %47
  store i64 %48, ptr %9, align 8, !tbaa !23
  %49 = load i64, ptr %6, align 8, !tbaa !23
  %50 = load i64, ptr %9, align 8, !tbaa !23
  %51 = mul i64 %49, %50
  store i64 %51, ptr %10, align 8, !tbaa !23
  %52 = load ptr, ptr %8, align 8, !tbaa !39
  %53 = getelementptr inbounds nuw %struct.tagCDataObject, ptr %52, i32 0, i32 1
  %54 = load ptr, ptr %53, align 16, !tbaa !46
  %55 = load i64, ptr %10, align 8, !tbaa !23
  %56 = getelementptr i8, ptr %54, i64 %55
  store ptr %56, ptr %11, align 8, !tbaa !25
  %57 = load ptr, ptr %13, align 8, !tbaa !3
  %58 = load ptr, ptr %5, align 8, !tbaa !7
  %59 = load ptr, ptr %14, align 8, !tbaa !3
  %60 = getelementptr inbounds nuw %struct.StgInfo, ptr %59, i32 0, i32 5
  %61 = load ptr, ptr %60, align 8, !tbaa !60
  %62 = load ptr, ptr %14, align 8, !tbaa !3
  %63 = getelementptr inbounds nuw %struct.StgInfo, ptr %62, i32 0, i32 6
  %64 = load ptr, ptr %63, align 8, !tbaa !56
  %65 = load ptr, ptr %7, align 8, !tbaa !7
  %66 = load i64, ptr %6, align 8, !tbaa !23
  %67 = load i64, ptr %9, align 8, !tbaa !23
  %68 = load ptr, ptr %11, align 8, !tbaa !25
  %69 = call i32 @PyCData_set(ptr noundef %57, ptr noundef %58, ptr noundef %61, ptr noundef %64, ptr noundef %65, i64 noundef %66, i64 noundef %67, ptr noundef %68)
  store i32 %69, ptr %4, align 4
  store i32 1, ptr %12, align 4
  br label %70

70:                                               ; preds = %41, %39, %29
  call void @llvm.lifetime.end.p0(i64 8, ptr %14) #9
  call void @llvm.lifetime.end.p0(i64 8, ptr %13) #9
  br label %71

71:                                               ; preds = %70, %18
  call void @llvm.lifetime.end.p0(i64 8, ptr %11) #9
  call void @llvm.lifetime.end.p0(i64 8, ptr %10) #9
  call void @llvm.lifetime.end.p0(i64 8, ptr %9) #9
  call void @llvm.lifetime.end.p0(i64 8, ptr %8) #9
  %72 = load i32, ptr %4, align 4
  ret i32 %72
}