; Function Attrs: nounwind uwtable
define internal i32 @Array_ass_item(ptr noundef captures(none) %0, i64 noundef %1, ptr noundef %2) #0 {
  %4 = icmp eq ptr %2, null
  br i1 %4, label %5, label %7

5:                                                ; preds = %3
  %6 = load ptr, ptr @PyExc_TypeError, align 8, !tbaa !27
  tail call void @PyErr_SetString(ptr noundef %6, ptr noundef nonnull @.str.188) #17
  br label %PyCData_set.exit

7:                                                ; preds = %3
  %8 = getelementptr i8, ptr %0, i64 8
  %.val20 = load ptr, ptr %8, align 8, !tbaa !10
  %9 = getelementptr i8, ptr %.val20, i64 8
  %.val = load ptr, ptr %9, align 8, !tbaa !10
  %10 = tail call ptr @PyType_GetModuleByDef(ptr noundef %.val, ptr noundef nonnull @_ctypesmodule) #17
  %11 = getelementptr i8, ptr %10, i64 32
  %.val.i = load ptr, ptr %11, align 8, !tbaa !63
  %.val21 = load ptr, ptr %8, align 8, !tbaa !10
  %12 = getelementptr inbounds nuw i8, ptr %.val.i, i64 40
  %13 = load ptr, ptr %12, align 8, !tbaa !28
  %14 = tail call i32 @PyObject_IsInstance(ptr noundef %.val21, ptr noundef %13) #17
  %.not.i.i = icmp eq i32 %14, 0
  br i1 %.not.i.i, label %PyStgInfo_FromObject.exit, label %15

15:                                               ; preds = %7
  %16 = load ptr, ptr %12, align 8, !tbaa !28
  %17 = tail call ptr @PyObject_GetTypeData(ptr noundef %.val21, ptr noundef %16) #17
  %18 = load i32, ptr %17, align 8, !tbaa !29
  %.not8.i.i = icmp eq i32 %18, 0
  %spec.select = select i1 %.not8.i.i, ptr null, ptr %17
  br label %PyStgInfo_FromObject.exit

PyStgInfo_FromObject.exit:                        ; preds = %15, %7
  %.024 = phi ptr [ null, %7 ], [ %spec.select, %15 ]
  %19 = icmp slt i64 %1, 0
  br i1 %19, label %23, label %20

20:                                               ; preds = %PyStgInfo_FromObject.exit
  %21 = getelementptr inbounds nuw i8, ptr %.024, i64 24
  %22 = load i64, ptr %21, align 8, !tbaa !36
  %.not = icmp slt i64 %1, %22
  br i1 %.not, label %25, label %23

23:                                               ; preds = %20, %PyStgInfo_FromObject.exit
  %24 = load ptr, ptr @PyExc_IndexError, align 8, !tbaa !27
  tail call void @PyErr_SetString(ptr noundef %24, ptr noundef nonnull @.str.187) #17
  br label %PyCData_set.exit

25:                                               ; preds = %20
  %26 = getelementptr inbounds nuw i8, ptr %.024, i64 8
  %27 = load i64, ptr %26, align 8, !tbaa !40
  %28 = sdiv i64 %27, %22
  %29 = mul i64 %28, %1
  %30 = getelementptr inbounds nuw i8, ptr %0, i64 16
  %31 = load ptr, ptr %30, align 16, !tbaa !42
  %32 = getelementptr i8, ptr %31, i64 %29
  %33 = getelementptr inbounds nuw i8, ptr %.024, i64 56
  %34 = load ptr, ptr %33, align 8, !tbaa !59
  %35 = getelementptr inbounds nuw i8, ptr %.024, i64 64
  %36 = load ptr, ptr %35, align 8, !tbaa !52
  %37 = getelementptr inbounds nuw i8, ptr %.val.i, i64 96
  %38 = load ptr, ptr %37, align 8, !tbaa !51
  %.val.i22 = load ptr, ptr %8, align 8, !tbaa !10
  %.not.i.i23 = icmp eq ptr %.val.i22, %38
  br i1 %.not.i.i23, label %PyObject_TypeCheck.exit.thread.i, label %PyObject_TypeCheck.exit.i

PyObject_TypeCheck.exit.i:                        ; preds = %25
  %39 = tail call i32 @PyType_IsSubtype(ptr noundef %.val.i22, ptr noundef %38) #17
  %.not16.i = icmp eq i32 %39, 0
  br i1 %.not16.i, label %40, label %PyObject_TypeCheck.exit.thread.i

40:                                               ; preds = %PyObject_TypeCheck.exit.i
  %41 = load ptr, ptr @PyExc_TypeError, align 8, !tbaa !27
  tail call void @PyErr_SetString(ptr noundef %41, ptr noundef nonnull @.str.4) #17
  br label %PyCData_set.exit

PyObject_TypeCheck.exit.thread.i:                 ; preds = %PyObject_TypeCheck.exit.i, %25
  %42 = tail call fastcc ptr @_PyCData_set(ptr noundef nonnull readonly %.val.i, ptr noundef %34, ptr noundef %36, ptr noundef nonnull %2, i64 noundef %28, ptr noundef %32)
  %43 = icmp eq ptr %42, null
  br i1 %43, label %PyCData_set.exit, label %44

44:                                               ; preds = %PyObject_TypeCheck.exit.thread.i
  %45 = tail call fastcc i32 @KeepRef(ptr noundef nonnull %0, i64 noundef %1, ptr noundef nonnull %42)
  br label %PyCData_set.exit

PyCData_set.exit:                                 ; preds = %23, %40, %PyObject_TypeCheck.exit.thread.i, %44, %5
  %.0 = phi i32 [ -1, %5 ], [ -1, %23 ], [ %45, %44 ], [ -1, %40 ], [ -1, %PyObject_TypeCheck.exit.thread.i ]
  ret i32 %.0
}